; Function Attrs: nounwind uwtable
define ptr @l_Lake_Env_leanGithash(ptr noundef readonly captures(none) %0) local_unnamed_addr #0 {
lean_dec.exit:
  %1 = getelementptr inbounds nuw i8, ptr %0, i64 40
  %2 = load ptr, ptr %1, align 8, !tbaa !9
  %3 = getelementptr i8, ptr %2, i64 8
  %.val = load i64, ptr %3, align 8, !tbaa !12
  %.mask = and i64 %.val, 9223372036854775807
  %.not = icmp eq i64 %.mask, 1
  br i1 %.not, label %13, label %4

4:                                                ; preds = %lean_dec.exit
  %5 = ptrtoint ptr %2 to i64
  %6 = and i64 %5, 1
  %.not19 = icmp eq i64 %6, 0
  br i1 %.not19, label %7, label %lean_inc.exit13

7:                                                ; preds = %4
  %.val.i = load i32, ptr %2, align 4, !tbaa !4
  %8 = icmp sgt i32 %.val.i, 0
  br i1 %8, label %9, label %11, !prof !11

9:                                                ; preds = %7
  %10 = add nuw i32 %.val.i, 1
  store i32 %10, ptr %2, align 4, !tbaa !4
  br label %lean_inc.exit13

11:                                               ; preds = %7
  %.not.i14 = icmp eq i32 %.val.i, 0
  br i1 %.not.i14, label %lean_inc.exit13, label %12

12:                                               ; preds = %11
  tail call void @lean_inc_ref_cold(ptr noundef nonnull %2) #6
  br label %lean_inc.exit13

13:                                               ; preds = %lean_dec.exit
  %14 = getelementptr inbounds nuw i8, ptr %0, i64 16
  %15 = load ptr, ptr %14, align 8, !tbaa !9
  %16 = getelementptr inbounds nuw i8, ptr %15, i64 16
  %17 = load ptr, ptr %16, align 8, !tbaa !9
  %18 = ptrtoint ptr %17 to i64
  %19 = and i64 %18, 1
  %.not18 = icmp eq i64 %19, 0
  br i1 %.not18, label %20, label %lean_inc.exit13

20:                                               ; preds = %13
  %.val.i15 = load i32, ptr %17, align 4, !tbaa !4
  %21 = icmp sgt i32 %.val.i15, 0
  br i1 %21, label %22, label %24, !prof !11

22:                                               ; preds = %20
  %23 = add nuw i32 %.val.i15, 1
  store i32 %23, ptr %17, align 4, !tbaa !4
  br label %lean_inc.exit13

24:                                               ; preds = %20
  %.not.i16 = icmp eq i32 %.val.i15, 0
  br i1 %.not.i16, label %lean_inc.exit13, label %25

25:                                               ; preds = %24
  tail call void @lean_inc_ref_cold(ptr noundef nonnull %17) #6
  br label %lean_inc.exit13

lean_inc.exit13:                                  ; preds = %13, %22, %24, %25, %4, %9, %11, %12
  %.0 = phi ptr [ %2, %12 ], [ %2, %11 ], [ %2, %9 ], [ %2, %4 ], [ %17, %25 ], [ %17, %24 ], [ %17, %22 ], [ %17, %13 ]
  ret ptr %.0
}